; Function Attrs: mustprogress uwtable
define hidden void @_ZN5zxing9BitMatrix6getRowEiNS_3RefINS_8BitArrayEEE(ptr dead_on_unwind noalias nocapture writable writeonly sret(%"class.zxing::Ref.16") align 8 %0, ptr nocapture noundef nonnull readonly align 8 dereferenceable(346) %1, i32 noundef %2, ptr nocapture noundef %3) local_unnamed_addr #0 align 2 personality ptr @__gxx_personality_v0 {
  %5 = load ptr, ptr %3, align 8
  %6 = icmp eq ptr %5, null
  br i1 %6, label %._crit_edge, label %7

._crit_edge:                                      ; preds = %4
  %.phi.trans.insert = getelementptr inbounds i8, ptr %1, i64 12
  %.pre = load i32, ptr %.phi.trans.insert, align 4
  br label %12

7:                                                ; preds = %4
  %8 = tail call noundef i32 @_ZNK5zxing8BitArray7getSizeEv(ptr noundef nonnull align 8 dereferenceable(88) %5)
  %9 = getelementptr inbounds i8, ptr %1, i64 12
  %10 = load i32, ptr %9, align 4
  %11 = icmp slt i32 %8, %10
  br i1 %11, label %12, label %._crit_edge5

._crit_edge5:                                     ; preds = %7
  %.pre6 = load ptr, ptr %3, align 8
  br label %32

12:                                               ; preds = %._crit_edge, %7
  %13 = phi i32 [ %.pre, %._crit_edge ], [ %10, %7 ]
  %14 = tail call noalias noundef nonnull dereferenceable(88) ptr @_Znwm(i64 noundef 88) #14
  %15 = getelementptr inbounds i8, ptr %1, i64 12
  invoke void @_ZN5zxing8BitArrayC1Ei(ptr noundef nonnull align 8 dereferenceable(88) %14, i32 noundef %13)
          to label %16 unwind label %30

16:                                               ; preds = %12
  %17 = getelementptr inbounds i8, ptr %14, i64 8
  %18 = load i32, ptr %17, align 8
  %19 = add i32 %18, 1
  store i32 %19, ptr %17, align 8
  %20 = load ptr, ptr %3, align 8
  %.not5.i.i = icmp eq ptr %20, null
  br i1 %.not5.i.i, label %_ZN5zxing3RefINS_8BitArrayEEaSEPS1_.exit, label %21

21:                                               ; preds = %16
  %22 = getelementptr inbounds i8, ptr %20, i64 8
  %23 = load i32, ptr %22, align 8
  %24 = add i32 %23, -1
  store i32 %24, ptr %22, align 8
  %25 = icmp eq i32 %24, 0
  br i1 %25, label %26, label %_ZN5zxing3RefINS_8BitArrayEEaSEPS1_.exit

26:                                               ; preds = %21
  store i32 -559026175, ptr %22, align 8
  %27 = load ptr, ptr %20, align 8
  %28 = getelementptr inbounds i8, ptr %27, i64 8
  %29 = load ptr, ptr %28, align 8
  tail call void %29(ptr noundef nonnull align 8 dereferenceable(12) %20) #16
  br label %_ZN5zxing3RefINS_8BitArrayEEaSEPS1_.exit

_ZN5zxing3RefINS_8BitArrayEEaSEPS1_.exit:         ; preds = %16, %21, %26
  store ptr %14, ptr %3, align 8
  %.pre8 = load i32, ptr %15, align 4
  br label %32

30:                                               ; preds = %12
  %31 = landingpad { ptr, i32 }
          cleanup
  tail call void @_ZdlPv(ptr noundef nonnull %14) #15
  resume { ptr, i32 } %31

32:                                               ; preds = %._crit_edge5, %_ZN5zxing3RefINS_8BitArrayEEaSEPS1_.exit
  %33 = phi i32 [ %10, %._crit_edge5 ], [ %.pre8, %_ZN5zxing3RefINS_8BitArrayEEaSEPS1_.exit ]
  %34 = phi ptr [ %.pre6, %._crit_edge5 ], [ %14, %_ZN5zxing3RefINS_8BitArrayEEaSEPS1_.exit ]
  %35 = getelementptr inbounds i8, ptr %1, i64 312
  %36 = load ptr, ptr %35, align 8
  %37 = getelementptr inbounds i8, ptr %36, i64 16
  %38 = load ptr, ptr %37, align 8
  %39 = getelementptr inbounds i8, ptr %1, i64 336
  %40 = load ptr, ptr %39, align 8
  %41 = getelementptr inbounds i8, ptr %40, i64 16
  %42 = sext i32 %2 to i64
  %43 = load ptr, ptr %41, align 8
  %44 = getelementptr inbounds i32, ptr %43, i64 %42
  %45 = load i32, ptr %44, align 4
  %46 = sext i32 %45 to i64
  %47 = getelementptr inbounds i8, ptr %38, i64 %46
  %48 = getelementptr inbounds i8, ptr %34, i64 32
  %49 = load ptr, ptr %48, align 8
  %50 = getelementptr inbounds i8, ptr %49, i64 16
  %51 = load ptr, ptr %50, align 8
  %52 = sext i32 %33 to i64
  tail call void @llvm.memcpy.p0.p0.i64(ptr align 1 %51, ptr align 1 %47, i64 %52, i1 false)
  %53 = load ptr, ptr %3, align 8
  %.not.i.i = icmp eq ptr %53, null
  br i1 %.not.i.i, label %_ZN5zxing3RefINS_8BitArrayEEC2ERKS2_.exit, label %54

54:                                               ; preds = %32
  %55 = getelementptr inbounds i8, ptr %53, i64 8
  %56 = load i32, ptr %55, align 8
  %57 = add i32 %56, 1
  store i32 %57, ptr %55, align 8
  br label %_ZN5zxing3RefINS_8BitArrayEEC2ERKS2_.exit

_ZN5zxing3RefINS_8BitArrayEEC2ERKS2_.exit:        ; preds = %54, %32
  store ptr %53, ptr %0, align 8
  ret void
}